target datalayout = "e-m:e-p270:32:32-p271:32:32-p272:64:64-i64:64-i128:128-f80:128-n8:16:32:64-S128"
target triple = "x86_64-pc-linux-gnu"

%struct.If_Cut_t_ = type <{ float, float, float, float, i32, i32, i32, i64, [0 x i32] }>
%struct.If_Man_t_ = type { ptr, ptr, ptr, ptr, ptr, ptr, ptr, ptr, [5 x i32], i32, float, float, float, float, i32, float, i32, i32, [4 x ptr], ptr, i32, i32, i32, ptr, [3 x [32 x i32]], i32, i32, i32, ptr, ptr, ptr, ptr, ptr, ptr, ptr, i32, i32, i32, [16 x i32], i32, i32, i32, i32, ptr, ptr, ptr, ptr, ptr, i32, i32, [32 x i32], [32 x i32], i32, i32, i32, i32, ptr, [16 x ptr], [16 x ptr], [16 x ptr], [16 x ptr], [16 x ptr], [16 x ptr], [16 x ptr], ptr, ptr, ptr, ptr, [32 x i8], i32, i32, i32, [6 x i64], [2 x i32], [2 x i32], ptr, [15 x i32], ptr, ptr, ptr, [16 x i32], ptr, ptr, ptr, ptr, [2 x i32], [2 x i32], [2 x ptr], ptr }
%struct.If_Obj_t_ = type { i32, i32, i32, i32, i32, i32, ptr, ptr, ptr, float, float, float, %union.anon, ptr, %struct.If_Cut_t_ }
%union.anon = type { ptr }
%struct.Vec_Ptr_t_ = type { i32, i32, ptr }

; Function Attrs: inlinehint nounwind uwtable
define internal ptr @Vec_PtrEntry(ptr noundef %0, i32 noundef %1) #2 {
  %3 = alloca ptr, align 8
  %4 = alloca i32, align 4
  store ptr %0, ptr %3, align 8, !tbaa !134
  store i32 %1, ptr %4, align 4, !tbaa !8
  %5 = load ptr, ptr %3, align 8, !tbaa !134
  %6 = getelementptr inbounds nuw %struct.Vec_Ptr_t_, ptr %5, i32 0, i32 2
  %7 = load ptr, ptr %6, align 8, !tbaa !137
  %8 = load i32, ptr %4, align 4, !tbaa !8
  %9 = sext i32 %8 to i64
  %10 = getelementptr inbounds ptr, ptr %7, i64 %9
  %11 = load ptr, ptr %10, align 8, !tbaa !138
  ret ptr %11
}

; Function Attrs: inlinehint nounwind uwtable
define internal ptr @If_ObjCutBest(ptr noundef %0) #2 {
  %2 = alloca ptr, align 8
  store ptr %0, ptr %2, align 8, !tbaa !99
  %3 = load ptr, ptr %2, align 8, !tbaa !99
  %4 = getelementptr inbounds nuw %struct.If_Obj_t_, ptr %3, i32 0, i32 14
  ret ptr %4
}

; Function Attrs: inlinehint nounwind uwtable
define internal i32 @If_ObjIsConst1(ptr noundef %0) #2 {
  %2 = alloca ptr, align 8
  store ptr %0, ptr %2, align 8, !tbaa !99
  %3 = load ptr, ptr %2, align 8, !tbaa !99
  %4 = load i32, ptr %3, align 8
  %5 = and i32 %4, 15
  %6 = icmp eq i32 %5, 1
  %7 = zext i1 %6 to i32
  ret i32 %7
}

; Function Attrs: inlinehint nounwind uwtable
define internal ptr @If_ManObj(ptr noundef %0, i32 noundef %1) #2 {
  %3 = alloca ptr, align 8
  %4 = alloca i32, align 4
  store ptr %0, ptr %3, align 8, !tbaa !35
  store i32 %1, ptr %4, align 4, !tbaa !8
  %5 = load ptr, ptr %3, align 8, !tbaa !35
  %6 = getelementptr inbounds nuw %struct.If_Man_t_, ptr %5, i32 0, i32 5
  %7 = load ptr, ptr %6, align 8, !tbaa !104
  %8 = load i32, ptr %4, align 4, !tbaa !8
  %9 = call ptr @Vec_PtrEntry(ptr noundef %7, i32 noundef %8)
  ret ptr %9
}

; Function Attrs: nounwind uwtable
define float @If_CutEdgeFlow(ptr noundef %0, ptr noundef %1) #0 {
  %3 = alloca ptr, align 8
  %4 = alloca ptr, align 8
  %5 = alloca ptr, align 8
  %6 = alloca float, align 4
  %7 = alloca float, align 4
  %8 = alloca i32, align 4
  store ptr %0, ptr %3, align 8, !tbaa !35
  store ptr %1, ptr %4, align 8, !tbaa !15
  call void @llvm.lifetime.start.p0(i64 8, ptr %5) #9
  call void @llvm.lifetime.start.p0(i64 4, ptr %6) #9
  call void @llvm.lifetime.start.p0(i64 4, ptr %7) #9
  call void @llvm.lifetime.start.p0(i64 4, ptr %8) #9
  %9 = load ptr, ptr %4, align 8, !tbaa !15
  %10 = getelementptr inbounds nuw %struct.If_Cut_t_, ptr %9, i32 0, i32 7
  %11 = load i64, ptr %10, align 4
  %12 = lshr i64 %11, 24
  %13 = and i64 %12, 255
  %14 = trunc i64 %13 to i32
  %15 = uitofp i32 %14 to float
  store float %15, ptr %6, align 4, !tbaa !106
  store i32 0, ptr %8, align 4, !tbaa !8
  br label %16

16:                                               ; preds = %76, %2
  %17 = load i32, ptr %8, align 4, !tbaa !8
  %18 = load ptr, ptr %4, align 8, !tbaa !15
  %19 = getelementptr inbounds nuw %struct.If_Cut_t_, ptr %18, i32 0, i32 7
  %20 = load i64, ptr %19, align 4
  %21 = lshr i64 %20, 24
  %22 = and i64 %21, 255
  %23 = trunc i64 %22 to i32
  %24 = icmp slt i32 %17, %23
  br i1 %24, label %25, label %35

25:                                               ; preds = %16
  %26 = load ptr, ptr %3, align 8, !tbaa !35
  %27 = load ptr, ptr %4, align 8, !tbaa !15
  %28 = getelementptr inbounds nuw %struct.If_Cut_t_, ptr %27, i32 0, i32 8
  %29 = load i32, ptr %8, align 4, !tbaa !8
  %30 = sext i32 %29 to i64
  %31 = getelementptr inbounds [0 x i32], ptr %28, i64 0, i64 %30
  %32 = load i32, ptr %31, align 4, !tbaa !8
  %33 = call ptr @If_ManObj(ptr noundef %26, i32 noundef %32)
  store ptr %33, ptr %5, align 8, !tbaa !99
  %34 = icmp ne ptr %33, null
  br label %35

35:                                               ; preds = %25, %16
  %36 = phi i1 [ false, %16 ], [ %34, %25 ]
  br i1 %36, label %37, label %79

37:                                               ; preds = %35
  %38 = load ptr, ptr %5, align 8, !tbaa !99
  %39 = getelementptr inbounds nuw %struct.If_Obj_t_, ptr %38, i32 0, i32 3
  %40 = load i32, ptr %39, align 4, !tbaa !107
  %41 = icmp eq i32 %40, 0
  br i1 %41, label %46, label %42

42:                                               ; preds = %37
  %43 = load ptr, ptr %5, align 8, !tbaa !99
  %44 = call i32 @If_ObjIsConst1(ptr noundef %43)
  %45 = icmp ne i32 %44, 0
  br i1 %45, label %46, label %51

46:                                               ; preds = %42, %37
  %47 = load ptr, ptr %5, align 8, !tbaa !99
  %48 = call ptr @If_ObjCutBest(ptr noundef %47)
  %49 = getelementptr inbounds nuw %struct.If_Cut_t_, ptr %48, i32 0, i32 1
  %50 = load float, ptr %49, align 4, !tbaa !91
  store float %50, ptr %7, align 4, !tbaa !106
  br label %60

51:                                               ; preds = %42
  %52 = load ptr, ptr %5, align 8, !tbaa !99
  %53 = call ptr @If_ObjCutBest(ptr noundef %52)
  %54 = getelementptr inbounds nuw %struct.If_Cut_t_, ptr %53, i32 0, i32 1
  %55 = load float, ptr %54, align 4, !tbaa !91
  %56 = load ptr, ptr %5, align 8, !tbaa !99
  %57 = getelementptr inbounds nuw %struct.If_Obj_t_, ptr %56, i32 0, i32 9
  %58 = load float, ptr %57, align 8, !tbaa !108
  %59 = fdiv float %55, %58
  store float %59, ptr %7, align 4, !tbaa !106
  br label %60

60:                                               ; preds = %51, %46
  %61 = load float, ptr %6, align 4, !tbaa !106
  %62 = fcmp oge float %61, 0x4693B8B5C0000000
  br i1 %62, label %66, label %63

63:                                               ; preds = %60
  %64 = load float, ptr %7, align 4, !tbaa !106
  %65 = fcmp oge float %64, 0x4693B8B5C0000000
  br i1 %65, label %66, label %67

66:                                               ; preds = %63, %60
  store float 0x4693B8B5C0000000, ptr %6, align 4, !tbaa !106
  br label %75

67:                                               ; preds = %63
  %68 = load float, ptr %7, align 4, !tbaa !106
  %69 = load float, ptr %6, align 4, !tbaa !106
  %70 = fadd float %69, %68
  store float %70, ptr %6, align 4, !tbaa !106
  %71 = load float, ptr %6, align 4, !tbaa !106
  %72 = fcmp ogt float %71, 0x4693B8B5C0000000
  br i1 %72, label %73, label %74

73:                                               ; preds = %67
  store float 0x4693B8B5C0000000, ptr %6, align 4, !tbaa !106
  br label %74

74:                                               ; preds = %73, %67
  br label %75

75:                                               ; preds = %74, %66
  br label %76

76:                                               ; preds = %75
  %77 = load i32, ptr %8, align 4, !tbaa !8
  %78 = add nsw i32 %77, 1
  store i32 %78, ptr %8, align 4, !tbaa !8
  br label %16, !llvm.loop !112

79:                                               ; preds = %35
  %80 = load float, ptr %6, align 4, !tbaa !106
  call void @llvm.lifetime.end.p0(i64 4, ptr %8) #9
  call void @llvm.lifetime.end.p0(i64 4, ptr %7) #9
  call void @llvm.lifetime.end.p0(i64 4, ptr %6) #9
  call void @llvm.lifetime.end.p0(i64 8, ptr %5) #9
  ret float %80
}