; Function Attrs: nofree norecurse nosync nounwind memory(read, inaccessiblemem: none) uwtable
define float @If_CutEdgeFlow(ptr noundef readonly captures(none) %0, ptr noundef readonly captures(none) %1) local_unnamed_addr #7 {
  %3 = getelementptr inbounds nuw i8, ptr %1, i64 28
  %4 = load i64, ptr %3, align 4
  %5 = trunc i64 %4 to i32
  %6 = lshr i32 %5, 24
  %7 = uitofp nneg i32 %6 to float
  %8 = getelementptr inbounds nuw i8, ptr %1, i64 36
  %.not29 = icmp ult i32 %5, 16777216
  br i1 %.not29, label %.critedge, label %.lr.ph

.lr.ph:                                           ; preds = %2
  %9 = getelementptr i8, ptr %0, i64 40
  %.val = load ptr, ptr %9, align 8, !tbaa !92
  %10 = getelementptr i8, ptr %.val, i64 8
  %.val.val = load ptr, ptr %10, align 8, !tbaa !93
  %umax = tail call i32 @llvm.umax.i32(i32 %6, i32 1)
  %wide.trip.count = zext nneg i32 %umax to i64
  br label %11

11:                                               ; preds = %.lr.ph, %39
  %indvars.iv = phi i64 [ 0, %.lr.ph ], [ %indvars.iv.next, %39 ]
  %.01925 = phi float [ %7, %.lr.ph ], [ %.1, %39 ]
  %12 = getelementptr inbounds nuw [0 x i32], ptr %8, i64 0, i64 %indvars.iv
  %13 = load i32, ptr %12, align 4, !tbaa !14
  %14 = sext i32 %13 to i64
  %15 = getelementptr inbounds ptr, ptr %.val.val, i64 %14
  %16 = load ptr, ptr %15, align 8, !tbaa !95
  %.not = icmp eq ptr %16, null
  br i1 %.not, label %.critedge, label %17

17:                                               ; preds = %11
  %18 = getelementptr inbounds nuw i8, ptr %16, i64 12
  %19 = load i32, ptr %18, align 4, !tbaa !104
  %20 = icmp eq i32 %19, 0
  br i1 %20, label %23, label %21

21:                                               ; preds = %17
  %.val23 = load i32, ptr %16, align 8
  %22 = and i32 %.val23, 15
  %.not24 = icmp eq i32 %22, 1
  br i1 %.not24, label %23, label %26

23:                                               ; preds = %21, %17
  %24 = getelementptr inbounds nuw i8, ptr %16, i64 84
  %25 = load float, ptr %24, align 4, !tbaa !83
  br label %32

26:                                               ; preds = %21
  %27 = getelementptr inbounds nuw i8, ptr %16, i64 84
  %28 = load float, ptr %27, align 4, !tbaa !83
  %29 = getelementptr inbounds nuw i8, ptr %16, i64 48
  %30 = load float, ptr %29, align 8, !tbaa !105
  %31 = fdiv float %28, %30
  br label %32

32:                                               ; preds = %26, %23
  %.018 = phi float [ %25, %23 ], [ %31, %26 ]
  %33 = fcmp oge float %.01925, 0x4693B8B5C0000000
  %34 = fcmp oge float %.018, 0x4693B8B5C0000000
  %or.cond = select i1 %33, i1 true, i1 %34
  br i1 %or.cond, label %39, label %35

35:                                               ; preds = %32
  %36 = fadd float %.01925, %.018
  %37 = fcmp ogt float %36, 0x4693B8B5C0000000
  br i1 %37, label %38, label %39

38:                                               ; preds = %35
  br label %39

39:                                               ; preds = %32, %38, %35
  %.1 = phi float [ 0x4693B8B5C0000000, %38 ], [ %36, %35 ], [ 0x4693B8B5C0000000, %32 ]
  %indvars.iv.next = add nuw nsw i64 %indvars.iv, 1
  %exitcond.not = icmp eq i64 %indvars.iv.next, %wide.trip.count
  br i1 %exitcond.not, label %.critedge, label %11, !llvm.loop !107

.critedge:                                        ; preds = %11, %39, %2
  %.019.lcssa = phi float [ %7, %2 ], [ %.1, %39 ], [ %.01925, %11 ]
  ret float %.019.lcssa
}